; Function Attrs: mustprogress uwtable
define internal void @"_ZZ14cmUVStreamReadIZN7cmCTest7RunTestERKSt6vectorINSt7__cxx1112basic_stringIcSt11char_traitsIcESaIcEEESaIS7_EEPS7_PiPSoNSt6chrono8durationIdSt5ratioILl1ELl1EEEEPS9_N15cmProcessOutput8EncodingEE3$_0ZNS0_7RunTestESB_SC_SD_SE_SJ_SK_SM_E3$_1ESt10unique_ptrI20cmUVStreamReadHandleSt14default_deleteISQ_EEP11uv_stream_sT_T0_ENUlSV_lPK8uv_buf_tE_8__invokeESV_lS10_"(ptr noundef %0, i64 noundef %1, ptr nocapture readnone %2) #3 align 2 personality ptr @__gxx_personality_v0 {
  %4 = alloca %"class.std::vector.23", align 16
  call void @llvm.lifetime.start.p0(i64 24, ptr nonnull %4)
  %5 = load ptr, ptr %0, align 8
  %6 = icmp sgt i64 %1, 0
  br i1 %6, label %7, label %23

7:                                                ; preds = %3
  tail call void @_ZNSt6vectorIcSaIcEE6resizeEm(ptr noundef nonnull align 8 dereferenceable(24) %5, i64 noundef %1)
  call void @_ZNSaIcEC2ERKS_(ptr noundef nonnull align 1 dereferenceable(1) %4, ptr noundef nonnull align 1 dereferenceable(1) %5) #28
  %8 = load <2 x ptr>, ptr %5, align 8
  store <2 x ptr> %8, ptr %4, align 16
  %9 = getelementptr inbounds i8, ptr %4, i64 16
  %10 = getelementptr inbounds i8, ptr %5, i64 16
  %11 = load ptr, ptr %10, align 8
  store ptr %11, ptr %9, align 16
  call void @llvm.memset.p0.i64(ptr noundef nonnull align 8 dereferenceable(24) %5, i8 0, i64 24, i1 false)
  %12 = getelementptr inbounds i8, ptr %5, i64 40
  %13 = load ptr, ptr %12, align 8
  %.not.i.i.i = icmp eq ptr %13, null
  br i1 %.not.i.i.i, label %14, label %15

14:                                               ; preds = %7
  invoke void @_ZSt25__throw_bad_function_callv() #29
          to label %.noexc.i unwind label %21

.noexc.i:                                         ; preds = %14
  unreachable

15:                                               ; preds = %7
  %16 = getelementptr inbounds i8, ptr %5, i64 24
  %17 = getelementptr inbounds i8, ptr %5, i64 48
  %18 = load ptr, ptr %17, align 8
  invoke void %18(ptr noundef nonnull align 8 dereferenceable(16) %16, ptr noundef nonnull align 8 dereferenceable(24) %4)
          to label %_ZNKSt8functionIFvSt6vectorIcSaIcEEEEclES2_.exit.i unwind label %21

_ZNKSt8functionIFvSt6vectorIcSaIcEEEEclES2_.exit.i: ; preds = %15
  %19 = load ptr, ptr %4, align 16
  %.not.i.i.i.i = icmp eq ptr %19, null
  br i1 %.not.i.i.i.i, label %_ZNSt6vectorIcSaIcEED2Ev.exit.i, label %20

20:                                               ; preds = %_ZNKSt8functionIFvSt6vectorIcSaIcEEEEclES2_.exit.i
  call void @_ZdlPv(ptr noundef nonnull %19) #33
  br label %_ZNSt6vectorIcSaIcEED2Ev.exit.i

_ZNSt6vectorIcSaIcEED2Ev.exit.i:                  ; preds = %20, %_ZNKSt8functionIFvSt6vectorIcSaIcEEEEclES2_.exit.i
  call void @_ZNSaIcED2Ev(ptr noundef nonnull align 1 dereferenceable(1) %4) #28
  br label %"_ZZ14cmUVStreamReadIZN7cmCTest7RunTestERKSt6vectorINSt7__cxx1112basic_stringIcSt11char_traitsIcESaIcEEESaIS7_EEPS7_PiPSoNSt6chrono8durationIdSt5ratioILl1ELl1EEEEPS9_N15cmProcessOutput8EncodingEE3$_0ZNS0_7RunTestESB_SC_SD_SE_SJ_SK_SM_E3$_1ESt10unique_ptrI20cmUVStreamReadHandleSt14default_deleteISQ_EEP11uv_stream_sT_T0_ENKUlSV_lPK8uv_buf_tE_clESV_lS10_.exit"

21:                                               ; preds = %15, %14
  %22 = landingpad { ptr, i32 }
          cleanup
  call void @_ZNSt6vectorIcSaIcEED2Ev(ptr noundef nonnull align 8 dereferenceable(24) %4) #28
  resume { ptr, i32 } %22

23:                                               ; preds = %3
  %24 = icmp slt i64 %1, 0
  br i1 %24, label %25, label %"_ZZ14cmUVStreamReadIZN7cmCTest7RunTestERKSt6vectorINSt7__cxx1112basic_stringIcSt11char_traitsIcESaIcEEESaIS7_EEPS7_PiPSoNSt6chrono8durationIdSt5ratioILl1ELl1EEEEPS9_N15cmProcessOutput8EncodingEE3$_0ZNS0_7RunTestESB_SC_SD_SE_SJ_SK_SM_E3$_1ESt10unique_ptrI20cmUVStreamReadHandleSt14default_deleteISQ_EEP11uv_stream_sT_T0_ENKUlSV_lPK8uv_buf_tE_clESV_lS10_.exit"

25:                                               ; preds = %23
  %26 = getelementptr inbounds i8, ptr %5, i64 72
  %27 = load ptr, ptr %26, align 8
  %.not.i.i11.i = icmp eq ptr %27, null
  br i1 %.not.i.i11.i, label %28, label %_ZNKSt8functionIFvvEEclEv.exit.i

28:                                               ; preds = %25
  tail call void @_ZSt25__throw_bad_function_callv() #29
  unreachable

_ZNKSt8functionIFvvEEclEv.exit.i:                 ; preds = %25
  %29 = getelementptr inbounds i8, ptr %5, i64 56
  %30 = getelementptr inbounds i8, ptr %5, i64 80
  %31 = load ptr, ptr %30, align 8
  tail call void %31(ptr noundef nonnull align 8 dereferenceable(16) %29)
  %32 = tail call i32 @uv_read_stop(ptr noundef nonnull %0)
  br label %"_ZZ14cmUVStreamReadIZN7cmCTest7RunTestERKSt6vectorINSt7__cxx1112basic_stringIcSt11char_traitsIcESaIcEEESaIS7_EEPS7_PiPSoNSt6chrono8durationIdSt5ratioILl1ELl1EEEEPS9_N15cmProcessOutput8EncodingEE3$_0ZNS0_7RunTestESB_SC_SD_SE_SJ_SK_SM_E3$_1ESt10unique_ptrI20cmUVStreamReadHandleSt14default_deleteISQ_EEP11uv_stream_sT_T0_ENKUlSV_lPK8uv_buf_tE_clESV_lS10_.exit"

"_ZZ14cmUVStreamReadIZN7cmCTest7RunTestERKSt6vectorINSt7__cxx1112basic_stringIcSt11char_traitsIcESaIcEEESaIS7_EEPS7_PiPSoNSt6chrono8durationIdSt5ratioILl1ELl1EEEEPS9_N15cmProcessOutput8EncodingEE3$_0ZNS0_7RunTestESB_SC_SD_SE_SJ_SK_SM_E3$_1ESt10unique_ptrI20cmUVStreamReadHandleSt14default_deleteISQ_EEP11uv_stream_sT_T0_ENKUlSV_lPK8uv_buf_tE_clESV_lS10_.exit": ; preds = %_ZNSt6vectorIcSaIcEED2Ev.exit.i, %23, %_ZNKSt8functionIFvvEEclEv.exit.i
  call void @llvm.lifetime.end.p0(i64 24, ptr nonnull %4)
  ret void
}